; Function Attrs: nounwind sspstrong uwtable
define dso_local void @bdrv_dirty_bitmap_enable_successor(ptr noundef readonly captures(none) %bitmap) local_unnamed_addr #0 {
entry:
  %0 = load ptr, ptr %bitmap, align 8
  %successor = getelementptr inbounds nuw i8, ptr %bitmap, i64 24
  %1 = load ptr, ptr %successor, align 8
  %2 = load ptr, ptr %1, align 8
  %cmp = icmp eq ptr %0, %2
  br i1 %cmp, label %if.end, label %if.else

if.else:                                          ; preds = %entry
  tail call void @__assert_fail(ptr noundef nonnull @.str.11, ptr noundef nonnull @.str.1, i32 noundef 250, ptr noundef nonnull @__PRETTY_FUNCTION__.bdrv_dirty_bitmap_enable_successor) #15
  unreachable

if.end:                                           ; preds = %entry
  %3 = load atomic i64, ptr @qemu_mutex_lock_func monotonic, align 8
  %4 = inttoptr i64 %3 to ptr
  %dirty_bitmap_mutex.i = getelementptr inbounds nuw i8, ptr %0, i64 16904
  tail call void %4(ptr noundef nonnull %dirty_bitmap_mutex.i, ptr noundef nonnull @.str.1, i32 noundef 66) #14
  %5 = load ptr, ptr %successor, align 8
  %disabled.i = getelementptr inbounds nuw i8, ptr %5, i64 48
  store i8 0, ptr %disabled.i, align 8
  %6 = load ptr, ptr %bitmap, align 8
  %dirty_bitmap_mutex.i5 = getelementptr inbounds nuw i8, ptr %6, i64 16904
  tail call void @qemu_mutex_unlock_impl(ptr noundef nonnull %dirty_bitmap_mutex.i5, ptr noundef nonnull @.str.1, i32 noundef 71) #14
  ret void
}